target datalayout = "e-m:e-p270:32:32-p271:32:32-p272:64:64-i64:64-i128:128-f80:128-n8:16:32:64-S128"
target triple = "x86_64-unknown-linux-gnu"

%"class.icu_75::UnicodeSet" = type <{ %"class.icu_75::UnicodeFilter", ptr, i32, i32, i8, [7 x i8], ptr, ptr, i32, [4 x i8], ptr, i32, [4 x i8], ptr, ptr, [25 x i32], [4 x i8] }>
%"class.icu_75::UnicodeFilter" = type { %"class.icu_75::UnicodeFunctor", %"class.icu_75::UnicodeMatcher" }
%"class.icu_75::UnicodeFunctor" = type { %"class.icu_75::UObject" }
%"class.icu_75::UObject" = type { ptr }
%"class.icu_75::UnicodeMatcher" = type { ptr }
%"class.icu_75::UVector" = type { %"class.icu_75::UObject", i32, i32, ptr, ptr, ptr }

; Function Attrs: mustprogress uwtable
define linkonce_odr noundef signext i8 @_ZNK6icu_757UVector8containsEPv(ptr noundef nonnull align 8 dereferenceable(40) %this, ptr noundef %obj) #1 comdat align 2 {
entry:
  %this.addr = alloca ptr, align 8
  %obj.addr = alloca ptr, align 8
  store ptr %this, ptr %this.addr, align 8
  store ptr %obj, ptr %obj.addr, align 8
  %this1 = load ptr, ptr %this.addr, align 8
  %0 = load ptr, ptr %obj.addr, align 8
  %call = call noundef i32 @_ZNK6icu_757UVector7indexOfEPvi(ptr noundef nonnull align 8 dereferenceable(40) %this1, ptr noundef %0, i32 noundef 0)
  %cmp = icmp sge i32 %call, 0
  %conv = zext i1 %cmp to i8
  ret i8 %conv
}

; Function Attrs: mustprogress uwtable
define noundef signext i8 @_ZNK6icu_7510UnicodeSet15stringsContainsERKNS_13UnicodeStringE(ptr noundef nonnull align 8 dereferenceable(200) %this, ptr noundef nonnull align 8 dereferenceable(64) %s) #1 align 2 {
entry:
  %this.addr = alloca ptr, align 8
  %s.addr = alloca ptr, align 8
  store ptr %this, ptr %this.addr, align 8
  store ptr %s, ptr %s.addr, align 8
  %this1 = load ptr, ptr %this.addr, align 8
  %strings = getelementptr inbounds %"class.icu_75::UnicodeSet", ptr %this1, i32 0, i32 13
  %0 = load ptr, ptr %strings, align 8
  %cmp = icmp ne ptr %0, null
  br i1 %cmp, label %land.rhs, label %land.end

land.rhs:                                         ; preds = %entry
  %strings2 = getelementptr inbounds %"class.icu_75::UnicodeSet", ptr %this1, i32 0, i32 13
  %1 = load ptr, ptr %strings2, align 8
  %2 = load ptr, ptr %s.addr, align 8
  %call = call noundef signext i8 @_ZNK6icu_757UVector8containsEPv(ptr noundef nonnull align 8 dereferenceable(40) %1, ptr noundef %2)
  %tobool = icmp ne i8 %call, 0
  br label %land.end

land.end:                                         ; preds = %land.rhs, %entry
  %3 = phi i1 [ false, %entry ], [ %tobool, %land.rhs ]
  %conv = zext i1 %3 to i8
  ret i8 %conv
}

; Function Attrs: mustprogress nounwind uwtable
define linkonce_odr noundef i32 @_ZNK6icu_757UVector4sizeEv(ptr noundef nonnull align 8 dereferenceable(40) %this) #0 comdat align 2 {
entry:
  %this.addr = alloca ptr, align 8
  store ptr %this, ptr %this.addr, align 8
  %this1 = load ptr, ptr %this.addr, align 8
  %count = getelementptr inbounds %"class.icu_75::UVector", ptr %this1, i32 0, i32 1
  %0 = load i32, ptr %count, align 8
  ret i32 %0
}

; Function Attrs: mustprogress uwtable
define noundef nonnull align 8 dereferenceable(200) ptr @_ZN6icu_7510UnicodeSet6addAllERKS0_(ptr noundef nonnull align 8 dereferenceable(200) %this, ptr noundef nonnull align 8 dereferenceable(200) %c) unnamed_addr #1 align 2 {
entry:
  %this.addr = alloca ptr, align 8
  %c.addr = alloca ptr, align 8
  %i = alloca i32, align 4
  %s = alloca ptr, align 8
  store ptr %this, ptr %this.addr, align 8
  store ptr %c, ptr %c.addr, align 8
  %this1 = load ptr, ptr %this.addr, align 8
  %0 = load ptr, ptr %c.addr, align 8
  %len = getelementptr inbounds %"class.icu_75::UnicodeSet", ptr %0, i32 0, i32 3
  %1 = load i32, ptr %len, align 4
  %cmp = icmp sgt i32 %1, 0
  br i1 %cmp, label %land.lhs.true, label %if.end

land.lhs.true:                                    ; preds = %entry
  %2 = load ptr, ptr %c.addr, align 8
  %list = getelementptr inbounds %"class.icu_75::UnicodeSet", ptr %2, i32 0, i32 1
  %3 = load ptr, ptr %list, align 8
  %cmp2 = icmp ne ptr %3, null
  br i1 %cmp2, label %if.then, label %if.end

if.then:                                          ; preds = %land.lhs.true
  %4 = load ptr, ptr %c.addr, align 8
  %list3 = getelementptr inbounds %"class.icu_75::UnicodeSet", ptr %4, i32 0, i32 1
  %5 = load ptr, ptr %list3, align 8
  %6 = load ptr, ptr %c.addr, align 8
  %len4 = getelementptr inbounds %"class.icu_75::UnicodeSet", ptr %6, i32 0, i32 3
  %7 = load i32, ptr %len4, align 4
  call void @_ZN6icu_7510UnicodeSet3addEPKiia(ptr noundef nonnull align 8 dereferenceable(200) %this1, ptr noundef %5, i32 noundef %7, i8 noundef signext 0)
  br label %if.end

if.end:                                           ; preds = %if.then, %land.lhs.true, %entry
  %8 = load ptr, ptr %c.addr, align 8
  %strings = getelementptr inbounds %"class.icu_75::UnicodeSet", ptr %8, i32 0, i32 13
  %9 = load ptr, ptr %strings, align 8
  %cmp5 = icmp ne ptr %9, null
  br i1 %cmp5, label %if.then6, label %if.end14

if.then6:                                         ; preds = %if.end
  store i32 0, ptr %i, align 4
  br label %for.cond

for.cond:                                         ; preds = %for.inc, %if.then6
  %10 = load i32, ptr %i, align 4
  %11 = load ptr, ptr %c.addr, align 8
  %strings7 = getelementptr inbounds %"class.icu_75::UnicodeSet", ptr %11, i32 0, i32 13
  %12 = load ptr, ptr %strings7, align 8
  %call = call noundef i32 @_ZNK6icu_757UVector4sizeEv(ptr noundef nonnull align 8 dereferenceable(40) %12)
  %cmp8 = icmp slt i32 %10, %call
  br i1 %cmp8, label %for.body, label %for.end

for.body:                                         ; preds = %for.cond
  %13 = load ptr, ptr %c.addr, align 8
  %strings9 = getelementptr inbounds %"class.icu_75::UnicodeSet", ptr %13, i32 0, i32 13
  %14 = load ptr, ptr %strings9, align 8
  %15 = load i32, ptr %i, align 4
  %call10 = call noundef ptr @_ZNK6icu_757UVector9elementAtEi(ptr noundef nonnull align 8 dereferenceable(40) %14, i32 noundef %15)
  store ptr %call10, ptr %s, align 8
  %16 = load ptr, ptr %s, align 8
  %call11 = call noundef signext i8 @_ZNK6icu_7510UnicodeSet15stringsContainsERKNS_13UnicodeStringE(ptr noundef nonnull align 8 dereferenceable(200) %this1, ptr noundef nonnull align 8 dereferenceable(64) %16)
  %tobool = icmp ne i8 %call11, 0
  br i1 %tobool, label %if.end13, label %if.then12

if.then12:                                        ; preds = %for.body
  %17 = load ptr, ptr %s, align 8
  call void @_ZN6icu_7510UnicodeSet4_addERKNS_13UnicodeStringE(ptr noundef nonnull align 8 dereferenceable(200) %this1, ptr noundef nonnull align 8 dereferenceable(64) %17)
  br label %if.end13

if.end13:                                         ; preds = %if.then12, %for.body
  br label %for.inc

for.inc:                                          ; preds = %if.end13
  %18 = load i32, ptr %i, align 4
  %inc = add nsw i32 %18, 1
  store i32 %inc, ptr %i, align 4
  br label %for.cond, !llvm.loop !17

for.end:                                          ; preds = %for.cond
  br label %if.end14

if.end14:                                         ; preds = %for.end, %if.end
  ret ptr %this1
}

; Function Attrs: mustprogress uwtable
define void @_ZNK6icu_7510UnicodeSet13addMatchSetToERS0_(ptr noundef nonnull align 8 dereferenceable(200) %this, ptr noundef nonnull align 8 dereferenceable(200) %toUnionTo) unnamed_addr #1 align 2 {
entry:
  %this.addr = alloca ptr, align 8
  %toUnionTo.addr = alloca ptr, align 8
  store ptr %this, ptr %this.addr, align 8
  store ptr %toUnionTo, ptr %toUnionTo.addr, align 8
  %this1 = load ptr, ptr %this.addr, align 8
  %0 = load ptr, ptr %toUnionTo.addr, align 8
  %call = call noundef nonnull align 8 dereferenceable(200) ptr @_ZN6icu_7510UnicodeSet6addAllERKS0_(ptr noundef nonnull align 8 dereferenceable(200) %0, ptr noundef nonnull align 8 dereferenceable(200) %this1)
  ret void
}

; Function Attrs: uwtable
define void @_ZThn8_NK6icu_7510UnicodeSet13addMatchSetToERS0_(ptr noundef %this, ptr noundef nonnull align 8 dereferenceable(200) %toUnionTo) unnamed_addr #9 align 2 {
entry:
  %this.addr = alloca ptr, align 8
  %toUnionTo.addr = alloca ptr, align 8
  store ptr %this, ptr %this.addr, align 8
  store ptr %toUnionTo, ptr %toUnionTo.addr, align 8
  %this1 = load ptr, ptr %this.addr, align 8
  %0 = getelementptr inbounds i8, ptr %this1, i64 -8
  %1 = load ptr, ptr %toUnionTo.addr, align 8
  tail call void @_ZNK6icu_7510UnicodeSet13addMatchSetToERS0_(ptr noundef nonnull align 8 dereferenceable(200) %0, ptr noundef nonnull align 8 dereferenceable(200) %1)
  ret void
}