; Function Attrs: uwtable
define void @_ZThn8_NK6icu_7510UnicodeSet13addMatchSetToERS0_(ptr nocapture noundef readonly %this, ptr noundef nonnull align 8 dereferenceable(200) %toUnionTo) unnamed_addr #14 align 2 {
entry:
  %len.i.i = getelementptr inbounds i8, ptr %this, i64 20
  %0 = load i32, ptr %len.i.i, align 4
  %cmp.i.i = icmp sgt i32 %0, 0
  br i1 %cmp.i.i, label %land.lhs.true.i.i, label %if.end.i.i

land.lhs.true.i.i:                                ; preds = %entry
  %list.i.i = getelementptr inbounds i8, ptr %this, i64 8
  %1 = load ptr, ptr %list.i.i, align 8
  %cmp2.not.i.i = icmp eq ptr %1, null
  br i1 %cmp2.not.i.i, label %if.end.i.i, label %if.then.i.i

if.then.i.i:                                      ; preds = %land.lhs.true.i.i
  tail call void @_ZN6icu_7510UnicodeSet3addEPKiia(ptr noundef nonnull align 8 dereferenceable(200) %toUnionTo, ptr noundef nonnull %1, i32 noundef %0, i8 noundef signext 0)
  br label %if.end.i.i

if.end.i.i:                                       ; preds = %if.then.i.i, %land.lhs.true.i.i, %entry
  %strings.i.i = getelementptr inbounds i8, ptr %this, i64 72
  %2 = load ptr, ptr %strings.i.i, align 8
  %cmp5.not.i.i = icmp eq ptr %2, null
  br i1 %cmp5.not.i.i, label %_ZNK6icu_7510UnicodeSet13addMatchSetToERS0_.exit, label %for.cond.preheader.i.i

for.cond.preheader.i.i:                           ; preds = %if.end.i.i
  %count.i13.i.i = getelementptr inbounds i8, ptr %2, i64 8
  %3 = load i32, ptr %count.i13.i.i, align 8
  %cmp814.i.i = icmp sgt i32 %3, 0
  br i1 %cmp814.i.i, label %for.body.lr.ph.i.i, label %_ZNK6icu_7510UnicodeSet13addMatchSetToERS0_.exit

for.body.lr.ph.i.i:                               ; preds = %for.cond.preheader.i.i
  %strings.i.i.i = getelementptr inbounds i8, ptr %toUnionTo, i64 80
  br label %for.body.i.i

for.body.i.i:                                     ; preds = %for.inc.i.i, %for.body.lr.ph.i.i
  %4 = phi ptr [ %2, %for.body.lr.ph.i.i ], [ %6, %for.inc.i.i ]
  %i.015.i.i = phi i32 [ 0, %for.body.lr.ph.i.i ], [ %inc.i.i, %for.inc.i.i ]
  %call10.i.i = tail call noundef ptr @_ZNK6icu_757UVector9elementAtEi(ptr noundef nonnull align 8 dereferenceable(40) %4, i32 noundef %i.015.i.i)
  %5 = load ptr, ptr %strings.i.i.i, align 8
  %cmp.not.i.i.i = icmp eq ptr %5, null
  br i1 %cmp.not.i.i.i, label %if.then12.i.i, label %_ZNK6icu_7510UnicodeSet15stringsContainsERKNS_13UnicodeStringE.exit.i.i

_ZNK6icu_7510UnicodeSet15stringsContainsERKNS_13UnicodeStringE.exit.i.i: ; preds = %for.body.i.i
  %call.i.i.i.i = tail call noundef i32 @_ZNK6icu_757UVector7indexOfEPvi(ptr noundef nonnull align 8 dereferenceable(40) %5, ptr noundef nonnull %call10.i.i, i32 noundef 0)
  %cmp.i.i.i.i = icmp slt i32 %call.i.i.i.i, 0
  br i1 %cmp.i.i.i.i, label %if.then12.i.i, label %for.inc.i.i

if.then12.i.i:                                    ; preds = %_ZNK6icu_7510UnicodeSet15stringsContainsERKNS_13UnicodeStringE.exit.i.i, %for.body.i.i
  tail call void @_ZN6icu_7510UnicodeSet4_addERKNS_13UnicodeStringE(ptr noundef nonnull align 8 dereferenceable(200) %toUnionTo, ptr noundef nonnull align 8 dereferenceable(64) %call10.i.i)
  br label %for.inc.i.i

for.inc.i.i:                                      ; preds = %if.then12.i.i, %_ZNK6icu_7510UnicodeSet15stringsContainsERKNS_13UnicodeStringE.exit.i.i
  %inc.i.i = add nuw nsw i32 %i.015.i.i, 1
  %6 = load ptr, ptr %strings.i.i, align 8
  %count.i.i.i = getelementptr inbounds i8, ptr %6, i64 8
  %7 = load i32, ptr %count.i.i.i, align 8
  %cmp8.i.i = icmp slt i32 %inc.i.i, %7
  br i1 %cmp8.i.i, label %for.body.i.i, label %_ZNK6icu_7510UnicodeSet13addMatchSetToERS0_.exit, !llvm.loop !18

_ZNK6icu_7510UnicodeSet13addMatchSetToERS0_.exit: ; preds = %for.inc.i.i, %if.end.i.i, %for.cond.preheader.i.i
  ret void
}